; Function Attrs: mustprogress nofree norecurse nosync nounwind willreturn memory(read, inaccessiblemem: none) uwtable
define noundef i32 @_Z13gmx_mtop_nresRK10gmx_mtop_t(ptr noundef nonnull readonly align 8 captures(none) dereferenceable(768) %0) local_unnamed_addr #2 {
  %2 = getelementptr inbounds nuw i8, ptr %0, i64 136
  %3 = load ptr, ptr %2, align 8, !tbaa !65
  %4 = getelementptr inbounds nuw i8, ptr %0, i64 144
  %5 = load ptr, ptr %4, align 8, !tbaa !65
  %.not10 = icmp eq ptr %3, %5
  br i1 %.not10, label %._crit_edge, label %.lr.ph

.lr.ph:                                           ; preds = %1
  %6 = getelementptr inbounds nuw i8, ptr %0, i64 112
  %7 = load ptr, ptr %6, align 8, !tbaa !66
  br label %8

._crit_edge:                                      ; preds = %8, %1
  %.0.lcssa = phi i32 [ 0, %1 ], [ %16, %8 ]
  ret i32 %.0.lcssa

8:                                                ; preds = %.lr.ph, %8
  %.012 = phi i32 [ 0, %.lr.ph ], [ %16, %8 ]
  %.sroa.07.011 = phi ptr [ %3, %.lr.ph ], [ %17, %8 ]
  %9 = getelementptr inbounds nuw i8, ptr %.sroa.07.011, i64 4
  %10 = load i32, ptr %9, align 4, !tbaa !82
  %11 = load i32, ptr %.sroa.07.011, align 8, !tbaa !67
  %12 = sext i32 %11 to i64
  %13 = getelementptr inbounds nuw %struct.gmx_moltype_t, ptr %7, i64 %12, i32 1, i32 5
  %14 = load i32, ptr %13, align 8, !tbaa !87
  %15 = mul nsw i32 %14, %10
  %16 = add nsw i32 %15, %.012
  %17 = getelementptr inbounds nuw i8, ptr %.sroa.07.011, i64 56
  %.not = icmp eq ptr %17, %5
  br i1 %.not, label %._crit_edge, label %8
}